target datalayout = "e-m:e-p270:32:32-p271:32:32-p272:64:64-i64:64-i128:128-f80:128-n8:16:32:64-S128"
target triple = "x86_64-pc-linux-gnu"

%struct._object = type { i64, ptr }
%"class.nanobind::handle" = type { ptr }
%class.anon.63 = type { i64 }
%"struct.nanobind::detail::type_caster.60" = type { %"struct.nanobind::detail::type_caster_base.61" }
%"struct.nanobind::detail::type_caster_base.61" = type { ptr }
%class.anon.72 = type { i8 }
%struct.capture.71 = type { %class.anon.63 }
%"struct.nanobind::detail::tuple.74" = type { %"struct.nanobind::detail::tuple.75", %"struct.nanobind::detail::type_caster.60" }
%"struct.nanobind::detail::tuple.75" = type { %"struct.nanobind::detail::type_caster.76" }
%"struct.nanobind::detail::type_caster.76" = type { i32 }

@_Py_NoneStruct = external global %struct._object, align 8
@_ZTIZL29nanobind_init_test_typing_extRN8nanobind7module_EE15CustomSignature = internal constant { ptr, ptr } { ptr getelementptr inbounds (ptr, ptr @_ZTVN10__cxxabiv117__class_type_infoE, i64 2), ptr @_ZTSZL29nanobind_init_test_typing_extRN8nanobind7module_EE15CustomSignature }, align 8

; Function Attrs: alwaysinline mustprogress nounwind optsize uwtable
define linkonce_odr hidden noundef nonnull align 4 dereferenceable(4) ptr @_ZN8nanobind6detail5tupleIJNS0_11type_casterIiiEEEE3getILm0EEERDav(ptr noundef nonnull align 4 dereferenceable(4) %0) #5 comdat align 2 {
  %2 = alloca ptr, align 8
  store ptr %0, ptr %2, align 8, !tbaa !266
  %3 = load ptr, ptr %2, align 8
  %4 = getelementptr inbounds nuw %"struct.nanobind::detail::tuple.75", ptr %3, i32 0, i32 0
  ret ptr %4
}

; Function Attrs: alwaysinline mustprogress nounwind optsize uwtable
define linkonce_odr hidden noundef ptr @_ZNK8nanobind6handle3ptrEv(ptr noundef nonnull align 8 dereferenceable(8) %0) #5 comdat align 2 {
  %2 = alloca ptr, align 8
  store ptr %0, ptr %2, align 8, !tbaa !12
  %3 = load ptr, ptr %2, align 8
  %4 = getelementptr inbounds nuw %"class.nanobind::handle", ptr %3, i32 0, i32 0
  %5 = load ptr, ptr %4, align 8, !tbaa !14
  ret ptr %5
}

; Function Attrs: inlinehint mustprogress nounwind optsize uwtable
define internal void @_ZL10_Py_INCREFP7_object(ptr noundef %0) #11 {
  %2 = alloca ptr, align 8
  store ptr %0, ptr %2, align 8, !tbaa !3
  %3 = load ptr, ptr %2, align 8, !tbaa !3
  %4 = getelementptr inbounds nuw %struct._object, ptr %3, i32 0, i32 0
  %5 = load i64, ptr %4, align 8, !tbaa !26
  %6 = add nsw i64 %5, 1
  store i64 %6, ptr %4, align 8, !tbaa !26
  ret void
}

; Function Attrs: inlinehint mustprogress nounwind optsize uwtable
define internal void @_ZZN8nanobind6class_IZL29nanobind_init_test_typing_extRNS_7module_EE15CustomSignatureJEE6def_rwIS3_iJNS_10for_getterINS_3sigEEENS_10for_setterIS7_EENS6_IPKcEENS9_ISC_EEEEERS4_SC_MT_T0_DpRKT1_ENKUlRS3_OiE_clESN_SO_(ptr noundef nonnull align 8 dereferenceable(8) %0, ptr noundef nonnull align 4 dereferenceable(4) %1, ptr noundef nonnull align 4 dereferenceable(4) %2) #11 align 2 {
  %4 = alloca ptr, align 8
  %5 = alloca ptr, align 8
  %6 = alloca ptr, align 8
  store ptr %0, ptr %4, align 8, !tbaa !30
  store ptr %1, ptr %5, align 8, !tbaa !231
  store ptr %2, ptr %6, align 8, !tbaa !101
  %7 = load ptr, ptr %4, align 8
  %8 = load ptr, ptr %6, align 8, !tbaa !101
  %9 = load i32, ptr %8, align 4, !tbaa !22
  %10 = load ptr, ptr %5, align 8, !tbaa !231
  %11 = getelementptr inbounds nuw %class.anon.63, ptr %7, i32 0, i32 0
  %12 = load i64, ptr %11, align 8, !tbaa !87
  %13 = getelementptr inbounds i8, ptr %10, i64 %12
  store i32 %9, ptr %13, align 4, !tbaa !22
  ret void
}

; Function Attrs: mustprogress nounwind optsize uwtable
define linkonce_odr hidden noundef nonnull align 4 dereferenceable(4) ptr @_ZN8nanobind6detail11type_casterIiiEcvOiEv(ptr noundef nonnull align 4 dereferenceable(4) %0) #8 comdat align 2 {
  %2 = alloca ptr, align 8
  store ptr %0, ptr %2, align 8, !tbaa !264
  %3 = load ptr, ptr %2, align 8
  %4 = getelementptr inbounds nuw %"struct.nanobind::detail::type_caster.76", ptr %3, i32 0, i32 0
  ret ptr %4
}

; Function Attrs: mustprogress optsize uwtable
define internal noundef nonnull align 4 dereferenceable(4) ptr @_ZN8nanobind6detail16type_caster_baseIZL29nanobind_init_test_typing_extRNS_7module_EE15CustomSignatureEcvRS4_Ev(ptr noundef nonnull align 8 dereferenceable(8) %0) #0 align 2 {
  %2 = alloca ptr, align 8
  store ptr %0, ptr %2, align 8, !tbaa !225
  %3 = load ptr, ptr %2, align 8
  %4 = getelementptr inbounds nuw %"struct.nanobind::detail::type_caster_base.61", ptr %3, i32 0, i32 0
  %5 = load ptr, ptr %4, align 8, !tbaa !233
  call void @_ZN8nanobind6detail27raise_next_overload_if_nullEPv(ptr noundef %5) #13
  %6 = getelementptr inbounds nuw %"struct.nanobind::detail::type_caster_base.61", ptr %3, i32 0, i32 0
  %7 = load ptr, ptr %6, align 8, !tbaa !233
  ret ptr %7
}

; Function Attrs: alwaysinline mustprogress nounwind optsize uwtable
define linkonce_odr hidden noundef zeroext i1 @_ZN8nanobind6detail11type_casterIiiE11from_pythonENS_6handleEhPNS0_12cleanup_listE(ptr noundef nonnull align 4 dereferenceable(4) %0, ptr %1, i8 noundef zeroext %2, ptr noundef %3) #5 comdat align 2 {
  %5 = alloca %"class.nanobind::handle", align 8
  %6 = alloca ptr, align 8
  %7 = alloca i8, align 1
  %8 = alloca ptr, align 8
  %9 = getelementptr inbounds nuw %"class.nanobind::handle", ptr %5, i32 0, i32 0
  store ptr %1, ptr %9, align 8
  store ptr %0, ptr %6, align 8, !tbaa !264
  store i8 %2, ptr %7, align 1, !tbaa !76
  store ptr %3, ptr %8, align 8, !tbaa !165
  %10 = load ptr, ptr %6, align 8
  %11 = call noundef ptr @_ZNK8nanobind6handle3ptrEv(ptr noundef nonnull align 8 dereferenceable(8) %5) #13
  %12 = load i8, ptr %7, align 1, !tbaa !76
  %13 = getelementptr inbounds nuw %"struct.nanobind::detail::type_caster.76", ptr %10, i32 0, i32 0
  %14 = call noundef zeroext i1 @_ZN8nanobind6detail8load_i32EP7_objecthPi(ptr noundef %11, i8 noundef zeroext %12, ptr noundef %13) #15
  ret i1 %14
}

; Function Attrs: alwaysinline mustprogress optsize uwtable
define internal noundef nonnull align 4 dereferenceable(4) ptr @_ZN8nanobind6detail5tupleIJNS0_11type_casterIZL29nanobind_init_test_typing_extRNS_7module_EE15CustomSignatureiEENS2_IiiEEEE3getILm1EEERDav(ptr noundef nonnull align 8 dereferenceable(16) %0) #3 align 2 {
  %2 = alloca ptr, align 8
  store ptr %0, ptr %2, align 8, !tbaa !262
  %3 = load ptr, ptr %2, align 8
  %4 = call noundef nonnull align 4 dereferenceable(4) ptr @_ZN8nanobind6detail5tupleIJNS0_11type_casterIiiEEEE3getILm0EEERDav(ptr noundef nonnull align 4 dereferenceable(4) %3) #13
  ret ptr %4
}

; Function Attrs: alwaysinline mustprogress nounwind optsize uwtable
define internal noundef zeroext i1 @_ZN8nanobind6detail16type_caster_baseIZL29nanobind_init_test_typing_extRNS_7module_EE15CustomSignatureE11from_pythonENS_6handleEhPNS0_12cleanup_listE(ptr noundef nonnull align 8 dereferenceable(8) %0, ptr %1, i8 noundef zeroext %2, ptr noundef %3) #5 align 2 {
  %5 = alloca %"class.nanobind::handle", align 8
  %6 = alloca ptr, align 8
  %7 = alloca i8, align 1
  %8 = alloca ptr, align 8
  %9 = getelementptr inbounds nuw %"class.nanobind::handle", ptr %5, i32 0, i32 0
  store ptr %1, ptr %9, align 8
  store ptr %0, ptr %6, align 8, !tbaa !225
  store i8 %2, ptr %7, align 1, !tbaa !76
  store ptr %3, ptr %8, align 8, !tbaa !165
  %10 = load ptr, ptr %6, align 8
  %11 = call noundef ptr @_ZNK8nanobind6handle3ptrEv(ptr noundef nonnull align 8 dereferenceable(8) %5) #13
  %12 = load i8, ptr %7, align 1, !tbaa !76
  %13 = load ptr, ptr %8, align 8, !tbaa !165
  %14 = getelementptr inbounds nuw %"struct.nanobind::detail::type_caster_base.61", ptr %10, i32 0, i32 0
  %15 = call noundef zeroext i1 @_ZN8nanobind6detail11nb_type_getEPKSt9type_infoP7_objecthPNS0_12cleanup_listEPPv(ptr noundef @_ZTIZL29nanobind_init_test_typing_extRN8nanobind7module_EE15CustomSignature, ptr noundef %11, i8 noundef zeroext %12, ptr noundef %13, ptr noundef %14) #15
  ret i1 %15
}

; Function Attrs: alwaysinline mustprogress nounwind optsize uwtable
define linkonce_odr hidden void @_ZN8nanobind6handleC2EPK7_object(ptr noundef nonnull align 8 dereferenceable(8) %0, ptr noundef %1) unnamed_addr #5 comdat align 2 {
  %3 = alloca ptr, align 8
  %4 = alloca ptr, align 8
  store ptr %0, ptr %3, align 8, !tbaa !12
  store ptr %1, ptr %4, align 8, !tbaa !3
  %5 = load ptr, ptr %3, align 8
  %6 = getelementptr inbounds nuw %"class.nanobind::handle", ptr %5, i32 0, i32 0
  %7 = load ptr, ptr %4, align 8, !tbaa !3
  store ptr %7, ptr %6, align 8, !tbaa !14
  ret void
}

; Function Attrs: alwaysinline mustprogress nounwind optsize uwtable
define internal noundef nonnull align 8 dereferenceable(8) ptr @_ZN8nanobind6detail5tupleIJNS0_11type_casterIZL29nanobind_init_test_typing_extRNS_7module_EE15CustomSignatureiEENS2_IiiEEEE3getILm0EEERDav(ptr noundef nonnull align 8 dereferenceable(16) %0) #5 align 2 {
  %2 = alloca ptr, align 8
  store ptr %0, ptr %2, align 8, !tbaa !262
  %3 = load ptr, ptr %2, align 8
  %4 = getelementptr inbounds nuw %"struct.nanobind::detail::tuple.74", ptr %3, i32 0, i32 1
  ret ptr %4
}

; Function Attrs: alwaysinline mustprogress optsize uwtable
define internal noundef ptr @_ZZN8nanobind6detail11func_createILb1ELb1EZNS_6class_IZL29nanobind_init_test_typing_extRNS_7module_EE15CustomSignatureJEE6def_rwIS5_iJNS_10for_getterINS_3sigEEENS_10for_setterIS9_EENS8_IPKcEENSB_ISE_EEEEERS6_SE_MT_T0_DpRKT1_EUlRS5_OiE_vJSP_SQ_EJLm0ELm1EEJNS_9is_methodEDnS9_DnSE_EEEP7_objectOT1_PFT2_DpT3_ESt16integer_sequenceImJXspT4_EEEDpRKT5_ENKUlPvPSU_PhNS_9rv_policyEPNS0_12cleanup_listEE_clES18_S19_S1A_S1B_S1D_(ptr noundef nonnull align 1 dereferenceable(1) %0, ptr noundef %1, ptr noundef %2, ptr noundef %3, i32 noundef %4, ptr noundef %5) #3 align 2 {
  %7 = alloca ptr, align 8
  %8 = alloca ptr, align 8
  %9 = alloca ptr, align 8
  %10 = alloca ptr, align 8
  %11 = alloca ptr, align 8
  %12 = alloca i32, align 4
  %13 = alloca ptr, align 8
  %14 = alloca ptr, align 8
  %15 = alloca %"struct.nanobind::detail::tuple.74", align 8
  %16 = alloca %"class.nanobind::handle", align 8
  %17 = alloca %"class.nanobind::handle", align 8
  %18 = alloca i32, align 4
  %19 = alloca ptr, align 8
  store ptr %0, ptr %8, align 8, !tbaa !30
  store ptr %1, ptr %9, align 8, !tbaa !30
  store ptr %2, ptr %10, align 8, !tbaa !161
  store ptr %3, ptr %11, align 8, !tbaa !20
  store i32 %4, ptr %12, align 4, !tbaa !163
  store ptr %5, ptr %13, align 8, !tbaa !165
  call void @llvm.lifetime.start.p0(i64 8, ptr %14) #14
  %20 = load ptr, ptr %9, align 8, !tbaa !30
  store ptr %20, ptr %14, align 8, !tbaa !258
  call void @llvm.lifetime.start.p0(i64 16, ptr %15) #14
  %21 = call noundef nonnull align 8 dereferenceable(8) ptr @_ZN8nanobind6detail5tupleIJNS0_11type_casterIZL29nanobind_init_test_typing_extRNS_7module_EE15CustomSignatureiEENS2_IiiEEEE3getILm0EEERDav(ptr noundef nonnull align 8 dereferenceable(16) %15) #13
  %22 = load ptr, ptr %10, align 8, !tbaa !161
  %23 = getelementptr inbounds nuw ptr, ptr %22, i64 0
  %24 = load ptr, ptr %23, align 8, !tbaa !3
  call void @_ZN8nanobind6handleC2EPK7_object(ptr noundef nonnull align 8 dereferenceable(8) %16, ptr noundef %24) #13
  %25 = load ptr, ptr %11, align 8, !tbaa !20
  %26 = getelementptr inbounds nuw i8, ptr %25, i64 0
  %27 = load i8, ptr %26, align 1, !tbaa !76
  %28 = load ptr, ptr %13, align 8, !tbaa !165
  %29 = getelementptr inbounds nuw %"class.nanobind::handle", ptr %16, i32 0, i32 0
  %30 = load ptr, ptr %29, align 8
  %31 = call noundef zeroext i1 @_ZN8nanobind6detail16type_caster_baseIZL29nanobind_init_test_typing_extRNS_7module_EE15CustomSignatureE11from_pythonENS_6handleEhPNS0_12cleanup_listE(ptr noundef nonnull align 8 dereferenceable(8) %21, ptr %30, i8 noundef zeroext %27, ptr noundef %28) #15
  br i1 %31, label %32, label %44

32:                                               ; preds = %6
  %33 = call noundef nonnull align 4 dereferenceable(4) ptr @_ZN8nanobind6detail5tupleIJNS0_11type_casterIZL29nanobind_init_test_typing_extRNS_7module_EE15CustomSignatureiEENS2_IiiEEEE3getILm1EEERDav(ptr noundef nonnull align 8 dereferenceable(16) %15) #13
  %34 = load ptr, ptr %10, align 8, !tbaa !161
  %35 = getelementptr inbounds nuw ptr, ptr %34, i64 1
  %36 = load ptr, ptr %35, align 8, !tbaa !3
  call void @_ZN8nanobind6handleC2EPK7_object(ptr noundef nonnull align 8 dereferenceable(8) %17, ptr noundef %36) #13
  %37 = load ptr, ptr %11, align 8, !tbaa !20
  %38 = getelementptr inbounds nuw i8, ptr %37, i64 1
  %39 = load i8, ptr %38, align 1, !tbaa !76
  %40 = load ptr, ptr %13, align 8, !tbaa !165
  %41 = getelementptr inbounds nuw %"class.nanobind::handle", ptr %17, i32 0, i32 0
  %42 = load ptr, ptr %41, align 8
  %43 = call noundef zeroext i1 @_ZN8nanobind6detail11type_casterIiiE11from_pythonENS_6handleEhPNS0_12cleanup_listE(ptr noundef nonnull align 4 dereferenceable(4) %33, ptr %42, i8 noundef zeroext %39, ptr noundef %40) #15
  br i1 %43, label %45, label %44

44:                                               ; preds = %32, %6
  store ptr inttoptr (i64 1 to ptr), ptr %7, align 8
  store i32 1, ptr %18, align 4
  br label %54

45:                                               ; preds = %32
  call void @llvm.lifetime.start.p0(i64 8, ptr %19) #14
  %46 = load ptr, ptr %14, align 8, !tbaa !258
  %47 = getelementptr inbounds nuw %struct.capture.71, ptr %46, i32 0, i32 0
  %48 = call noundef nonnull align 8 dereferenceable(8) ptr @_ZN8nanobind6detail5tupleIJNS0_11type_casterIZL29nanobind_init_test_typing_extRNS_7module_EE15CustomSignatureiEENS2_IiiEEEE3getILm0EEERDav(ptr noundef nonnull align 8 dereferenceable(16) %15) #13
  %49 = call noundef nonnull align 4 dereferenceable(4) ptr @_ZN8nanobind6detail16type_caster_baseIZL29nanobind_init_test_typing_extRNS_7module_EE15CustomSignatureEcvRS4_Ev(ptr noundef nonnull align 8 dereferenceable(8) %48) #13
  %50 = call noundef nonnull align 4 dereferenceable(4) ptr @_ZN8nanobind6detail5tupleIJNS0_11type_casterIZL29nanobind_init_test_typing_extRNS_7module_EE15CustomSignatureiEENS2_IiiEEEE3getILm1EEERDav(ptr noundef nonnull align 8 dereferenceable(16) %15) #13
  %51 = call noundef nonnull align 4 dereferenceable(4) ptr @_ZN8nanobind6detail11type_casterIiiEcvOiEv(ptr noundef nonnull align 4 dereferenceable(4) %50) #13
  call void @_ZZN8nanobind6class_IZL29nanobind_init_test_typing_extRNS_7module_EE15CustomSignatureJEE6def_rwIS3_iJNS_10for_getterINS_3sigEEENS_10for_setterIS7_EENS6_IPKcEENS9_ISC_EEEEERS4_SC_MT_T0_DpRKT1_ENKUlRS3_OiE_clESN_SO_(ptr noundef nonnull align 8 dereferenceable(8) %47, ptr noundef nonnull align 4 dereferenceable(4) %49, ptr noundef nonnull align 4 dereferenceable(4) %51) #13
  store ptr @_Py_NoneStruct, ptr %19, align 8, !tbaa !3
  %52 = load ptr, ptr %19, align 8, !tbaa !3
  call void @_ZL10_Py_INCREFP7_object(ptr noundef %52) #13
  %53 = load ptr, ptr %19, align 8, !tbaa !3
  store ptr %53, ptr %7, align 8
  store i32 1, ptr %18, align 4
  call void @llvm.lifetime.end.p0(i64 8, ptr %19) #14
  br label %54

54:                                               ; preds = %45, %44
  call void @llvm.lifetime.end.p0(i64 16, ptr %15) #14
  call void @llvm.lifetime.end.p0(i64 8, ptr %14) #14
  %55 = load ptr, ptr %7, align 8
  ret ptr %55
}

; Function Attrs: inlinehint mustprogress optsize uwtable
define internal noundef ptr @_ZZN8nanobind6detail11func_createILb1ELb1EZNS_6class_IZL29nanobind_init_test_typing_extRNS_7module_EE15CustomSignatureJEE6def_rwIS5_iJNS_10for_getterINS_3sigEEENS_10for_setterIS9_EENS8_IPKcEENSB_ISE_EEEEERS6_SE_MT_T0_DpRKT1_EUlRS5_OiE_vJSP_SQ_EJLm0ELm1EEJNS_9is_methodEDnS9_DnSE_EEEP7_objectOT1_PFT2_DpT3_ESt16integer_sequenceImJXspT4_EEEDpRKT5_ENUlPvPSU_PhNS_9rv_policyEPNS0_12cleanup_listEE_8__invokeES18_S19_S1A_S1B_S1D_(ptr noundef %0, ptr noundef %1, ptr noundef %2, i32 noundef %3, ptr noundef %4) #9 align 2 {
  %6 = alloca ptr, align 8
  %7 = alloca ptr, align 8
  %8 = alloca ptr, align 8
  %9 = alloca i32, align 4
  %10 = alloca ptr, align 8
  %11 = alloca %class.anon.72, align 1
  store ptr %0, ptr %6, align 8, !tbaa !30
  store ptr %1, ptr %7, align 8, !tbaa !161
  store ptr %2, ptr %8, align 8, !tbaa !20
  store i32 %3, ptr %9, align 4, !tbaa !163
  store ptr %4, ptr %10, align 8, !tbaa !165
  %12 = load ptr, ptr %6, align 8, !tbaa !30
  %13 = load ptr, ptr %7, align 8, !tbaa !161
  %14 = load ptr, ptr %8, align 8, !tbaa !20
  %15 = load i32, ptr %9, align 4, !tbaa !163
  %16 = load ptr, ptr %10, align 8, !tbaa !165
  %17 = call noundef ptr @_ZZN8nanobind6detail11func_createILb1ELb1EZNS_6class_IZL29nanobind_init_test_typing_extRNS_7module_EE15CustomSignatureJEE6def_rwIS5_iJNS_10for_getterINS_3sigEEENS_10for_setterIS9_EENS8_IPKcEENSB_ISE_EEEEERS6_SE_MT_T0_DpRKT1_EUlRS5_OiE_vJSP_SQ_EJLm0ELm1EEJNS_9is_methodEDnS9_DnSE_EEEP7_objectOT1_PFT2_DpT3_ESt16integer_sequenceImJXspT4_EEEDpRKT5_ENKUlPvPSU_PhNS_9rv_policyEPNS0_12cleanup_listEE_clES18_S19_S1A_S1B_S1D_(ptr noundef nonnull align 1 dereferenceable(1) %11, ptr noundef %12, ptr noundef %13, ptr noundef %14, i32 noundef %15, ptr noundef %16) #13
  ret ptr %17
}